(dp0
S'metric1_tp_list'
p1
(lp2
(lp3
I63
aI84
aI160
aI177
aI212
aI234
aa(lp4
I89
aI116
aI131
aI162
aI194
aI206
aa(lp5
I133
aI151
aI174
aI194
aI212
aI223
aa(lp6
I3
aI33
aI96
aI134
aI190
aI216
aasS'metric2_list'
p7
(lp8
F1250720.0
aF1247600.0
aF1251200.0
aF1248000.0
aF1247960.0
aF1248200.0
aF1244360.0
aF1245880.0
aF1244560.0
aF1245840.0
aF1247800.0
aF1248200.0
aF1247800.0
aF1246480.0
aF1249520.0
aF1248160.0
aF1249160.0
aF1251240.0
aF1249160.0
aF1249440.0
aF1246480.0
aF1245000.0
aF1244600.0
aF1243880.0
aF1245200.0
aF1245000.0
aF1245960.0
aF1243960.0
aF1244000.0
aF1243280.0
aF1241080.0
aF1243600.0
aF1244360.0
aF1244120.0
aF1249280.0
aF1247120.0
aF1247200.0
aF1249240.0
aF1249840.0
aF1251600.0
aF1250600.0
aF1251600.0
aF1251440.0
aF1253720.0
aF1256120.0
aF1255400.0
aF1254040.0
aF1252440.0
aF1252320.0
aF1252080.0
aF1252560.0
aF1251880.0
aF1250840.0
aF1251600.0
aF1251640.0
aF1254800.0
aF1255000.0
aF1254000.0
aF1254480.0
aF1254920.0
aF1256160.0
aF1254720.0
aF1253600.0
aF1252440.0
aF1250800.0
aF1251920.0
aF1250840.0
aF1251000.0
aF1252520.0
aF1252520.0
aF1251440.0
aF1251680.0
aF1250960.0
aF1254600.0
aF1254000.0
aF1254480.0
aF1254040.0
aF1254800.0
aF1256400.0
aF1256360.0
aF1256480.0
aF1259560.0
aF1259080.0
aF1262320.0
aF1262880.0
aF1259240.0
aF1259800.0
aF1261560.0
aF1261680.0
aF1263920.0
aF1263800.0
aF1264600.0
aF1262000.0
aF1262160.0
aF1261760.0
aF1258120.0
aF1259720.0
aF1258240.0
aF1258600.0
aF1260000.0
aF1260640.0
aF1262960.0
aF1261960.0
aF1265400.0
aF1264800.0
aF1265400.0
aF1264600.0
aF1265000.0
aF1263600.0
aF1262040.0
aF1263960.0
aF1263760.0
aF1265400.0
aF1264960.0
aF1265000.0
aF1264040.0
aF1264800.0
aF1264240.0
aF1265480.0
aF1266440.0
aF1264280.0
aF1261480.0
aF1261600.0
aF1262000.0
aF1261120.0
aF1259320.0
aF1259480.0
aF1259160.0
aF1259120.0
aF1256720.0
aF1256720.0
aF1257800.0
aF1259360.0
aF1258240.0
aF1258720.0
aF1257520.0
aF1258520.0
aF1258400.0
aF1254040.0
aF1255320.0
aF1255400.0
aF1254680.0
aF1254640.0
aF1254640.0
aF1255240.0
aF1256240.0
aF1256760.0
aF1257520.0
aF1256680.0
aF1257280.0
aF1256440.0
aF1255480.0
aF1256880.0
aF1257400.0
aF1257000.0
aF1256680.0
aF1256040.0
aF1256680.0
aF1257400.0
aF1257400.0
aF1258200.0
aF1258360.0
aF1258000.0
aF1257360.0
aF1257200.0
aF1257640.0
aF1258360.0
aF1259000.0
aF1258000.0
aF1257520.0
aF1256120.0
aF1256800.0
aF1256800.0
aF1256680.0
aF1255440.0
aF1253760.0
aF1254080.0
aF1254240.0
aF1255000.0
aF1253400.0
aF1254200.0
aF1255000.0
aF1255600.0
aF1254920.0
aF1253320.0
aF1252640.0
aF1252200.0
aF1250920.0
aF1249080.0
aF1248840.0
aF1250200.0
aF1249760.0
aF1249800.0
aF1249960.0
aF1248840.0
aF1247600.0
aF1250000.0
aF1249800.0
aF1250440.0
aF1250240.0
aF1250720.0
aF1250440.0
aF1250400.0
aF1251200.0
aF1251000.0
aF1250440.0
aF1250960.0
aF1254080.0
aF1254200.0
aF1252560.0
aF1253400.0
aF1253800.0
aF1254080.0
aF1255640.0
aF1255160.0
aF1255400.0
aF1254640.0
aF1254800.0
aF1254000.0
aF1252800.0
aF1253000.0
aF1253280.0
aF1253560.0
aF1252840.0
aF1250280.0
aF1249880.0
aF1248880.0
aF1249120.0
aF1249000.0
aF1247840.0
aF1247240.0
aF1244000.0
aF1246000.0
aF1245440.0
aF1245720.0
aF1245280.0
aF1245600.0
aF1244200.0
aF1244000.0
aF1243480.0
aF1244280.0
aF1246720.0
aF1247480.0
aF1248960.0
aF1250240.0
aF1250640.0
aF1250720.0
aF1250360.0
aF1249720.0
aF1250280.0
aF1250600.0
aF1251200.0
aF1252920.0
aF1251920.0
aF1252600.0
aF1252040.0
aF1251360.0
aF1250280.0
aF1250720.0
aF1251440.0
aF1250280.0
aF1250280.0
aF1250000.0
aF1249280.0
aF1250480.0
aF1250040.0
aF1250880.0
aF1250840.0
aF1251160.0
aF1251880.0
aF1254560.0
aF1255200.0
aF1255600.0
aF1254360.0
aF1254360.0
aF1254000.0
aF1254600.0
aF1255160.0
aF1254360.0
aF1254400.0
aF1253280.0
aF1252480.0
aF1254760.0
aF1254440.0
aF1253200.0
aF1253600.0
aF1253040.0
aF1251480.0
aF1251800.0
aF1252160.0
aF1252520.0
aF1253080.0
aF1253840.0
aF1253000.0
aF1253760.0
aF1253160.0
aF1253600.0
aF1254960.0
aF1255960.0
aF1255240.0
aF1255160.0
aF1255280.0
aF1254680.0
aF1256320.0
aF1255680.0
aF1254880.0
aF1254120.0
aF1254000.0
aF1253800.0
aF1254320.0
aF1253200.0
aF1251600.0
aF1251160.0
aF1251040.0
aF1251360.0
aF1251520.0
aF1251160.0
aF1250200.0
aF1250600.0
aF1251600.0
aF1250920.0
aF1250120.0
aF1250000.0
aF1251200.0
aF1250320.0
aF1250960.0
aF1250280.0
aF1250120.0
aF1247440.0
aF1248720.0
aF1249680.0
aF1250960.0
aF1250880.0
aF1251640.0
aF1250920.0
aF1252400.0
aF1252760.0
aF1252920.0
aF1252760.0
aF1252760.0
aF1256400.0
aF1255880.0
aF1254800.0
aF1256000.0
aF1257600.0
aF1256160.0
aF1256600.0
aF1257400.0
aF1257960.0
aF1256400.0
aF1257400.0
aF1255040.0
aF1254600.0
aF1254840.0
aF1257000.0
aF1257280.0
aF1258560.0
aF1257040.0
aF1255400.0
aF1255920.0
aF1255520.0
aF1256240.0
aF1256720.0
aF1255440.0
aF1255440.0
aF1255760.0
aF1255280.0
aF1255000.0
aF1254000.0
aF1253920.0
aF1254200.0
aF1254360.0
aF1255000.0
aF1254920.0
aF1256000.0
aF1256080.0
aF1256600.0
aF1256920.0
aF1258800.0
aF1260600.0
aF1261760.0
aF1262080.0
aF1265320.0
aF1264000.0
aF1262840.0
aF1262880.0
aF1263400.0
aF1264000.0
aF1262000.0
aF1264960.0
aF1264600.0
aF1264280.0
aF1264520.0
aF1262080.0
aF1264320.0
aF1270400.0
aF1268640.0
aF1270000.0
aF1270360.0
aF1274840.0
aF1273560.0
aF1274400.0
aF1274000.0
aF1272400.0
aF1274200.0
aF1275560.0
aF1271000.0
aF1267800.0
aF1268000.0
aF1268080.0
aF1268240.0
aF1266000.0
aF1267600.0
aF1267280.0
aF1266720.0
aF1266160.0
aF1270000.0
aF1269200.0
aF1268000.0
aF1269080.0
aF1270160.0
aF1270320.0
aF1270200.0
aF1269480.0
aF1271680.0
aF1271160.0
aF1270840.0
aF1268480.0
aF1269240.0
aF1266280.0
aF1264720.0
aF1265920.0
aF1264960.0
aF1266920.0
aF1268000.0
aF1266680.0
aF1269600.0
aF1272720.0
aF1273840.0
aF1276400.0
aF1278160.0
aF1277000.0
aF1276680.0
aF1278200.0
aF1275920.0
aF1275280.0
aF1274600.0
aF1278760.0
aF1277440.0
aF1283960.0
aF1285760.0
aF1286840.0
aF1284600.0
aF1288520.0
aF1286360.0
aF1284600.0
aF1284200.0
aF1284320.0
aF1282640.0
aF1281760.0
aF1282360.0
aF1281800.0
aF1278000.0
aF1278040.0
aF1276600.0
aF1275080.0
aF1277720.0
aF1276800.0
aF1276400.0
aF1276800.0
aF1275800.0
aF1274960.0
aF1273720.0
aF1274840.0
aF1275160.0
aF1275280.0
aF1275040.0
aF1276080.0
aF1278200.0
aF1294400.0
aF1292800.0
aF1293360.0
aF1293080.0
aF1294440.0
aF1294600.0
aF1294400.0
aF1297080.0
aF1297600.0
aF1297000.0
aF1297240.0
aF1301400.0
aF1302520.0
aF1306360.0
aF1304960.0
aF1305800.0
aF1304000.0
aF1307720.0
aF1310400.0
aF1306760.0
aF1308760.0
aF1309200.0
aF1309120.0
aF1307320.0
aF1308040.0
aF1306880.0
aF1308960.0
aF1312760.0
aF1312920.0
aF1315600.0
aF1317000.0
aF1318040.0
aF1316000.0
aF1317600.0
aF1319760.0
aF1317080.0
aF1320000.0
aF1320480.0
aF1322120.0
aF1324400.0
aF1322640.0
aF1322280.0
aF1320880.0
aF1319480.0
aF1321680.0
aF1321960.0
aF1318480.0
aF1319000.0
aF1319000.0
aF1321240.0
aF1320720.0
aF1321800.0
aF1322600.0
aF1322600.0
aF1325000.0
aF1328280.0
aF1325240.0
aF1326040.0
aF1325240.0
aF1324080.0
aF1325960.0
aF1325080.0
aF1323200.0
aF1324640.0
aF1328000.0
aF1324600.0
aF1325560.0
aF1329400.0
aF1332760.0
aF1331000.0
aF1331320.0
aF1332000.0
aF1331800.0
aF1330360.0
aF1330040.0
aF1329600.0
aF1329200.0
aF1328520.0
aF1328840.0
aF1326160.0
aF1329000.0
aF1330760.0
aF1329920.0
aF1328200.0
aF1328200.0
aF1330400.0
aF1333800.0
aF1334000.0
aF1336000.0
aF1334280.0
aF1335400.0
aF1338000.0
aF1339960.0
aF1339000.0
aF1341200.0
aF1343240.0
aF1341600.0
aF1343240.0
aF1347520.0
aF1346600.0
aF1347560.0
aF1346960.0
aF1346480.0
aF1345160.0
aF1344240.0
aF1345400.0
aF1344560.0
aF1340600.0
aF1340680.0
aF1340600.0
aF1341200.0
aF1341280.0
aF1341160.0
aF1342840.0
aF1342760.0
aF1342000.0
aF1342800.0
aF1342360.0
aF1341800.0
aF1340520.0
aF1341960.0
aF1341880.0
aF1342200.0
aF1342320.0
aF1343120.0
aF1342880.0
aF1344720.0
aF1344960.0
aF1343040.0
aF1344360.0
aF1343040.0
aF1347600.0
aF1349840.0
aF1347880.0
aF1349520.0
aF1351400.0
aF1354680.0
aF1355200.0
aF1352520.0
aF1352400.0
aF1349040.0
aF1347000.0
aF1347440.0
aF1347960.0
aF1346120.0
aF1344000.0
aF1345600.0
aF1345920.0
aF1343040.0
aF1343280.0
aF1342080.0
aF1344000.0
aF1342160.0
aF1338280.0
aF1338640.0
aF1338000.0
aF1338800.0
aF1341160.0
aF1337320.0
aF1338600.0
aF1339000.0
aF1338080.0
aF1338240.0
aF1340000.0
aF1339920.0
aF1337480.0
aF1338560.0
aF1338680.0
aF1337880.0
aF1335960.0
aF1333360.0
aF1333200.0
aF1333640.0
aF1334800.0
aF1335960.0
aF1335800.0
aF1336040.0
aF1338880.0
aF1339560.0
aF1339280.0
aF1339200.0
aF1338120.0
aF1339200.0
aF1341000.0
aF1339560.0
aF1337120.0
aF1337720.0
aF1335040.0
aF1337040.0
aF1338760.0
aF1340800.0
aF1341760.0
aF1342800.0
aF1342000.0
aF1342360.0
aF1342760.0
aF1343960.0
aF1343920.0
aF1341640.0
aF1341800.0
aF1338720.0
aF1337600.0
aF1336960.0
aF1338240.0
aF1337720.0
aF1338520.0
aF1337400.0
aF1334040.0
aF1335000.0
aF1336320.0
aF1333080.0
aF1335000.0
aF1340920.0
aF1339080.0
aF1339240.0
aF1341240.0
aF1341280.0
aF1340720.0
aF1341000.0
aF1340480.0
aF1340000.0
aF1340320.0
aF1339840.0
aF1338800.0
aF1340040.0
aF1339800.0
aF1340760.0
aF1341160.0
aF1341040.0
aF1340840.0
aF1340000.0
aF1338160.0
aF1336600.0
aF1336240.0
aF1334400.0
aF1332240.0
aF1332200.0
aF1332040.0
aF1332600.0
aF1331160.0
aF1324560.0
aF1324760.0
aF1325880.0
aF1327000.0
aF1329920.0
aF1329240.0
aF1329600.0
aF1329800.0
aF1331120.0
aF1331200.0
aF1333200.0
aF1332920.0
aF1332920.0
aF1331960.0
aF1332000.0
aF1332120.0
aF1331640.0
aF1330440.0
aF1330000.0
aF1331200.0
aF1329400.0
aF1330800.0
aF1330720.0
aF1331800.0
aF1331320.0
aF1333800.0
aF1333920.0
aF1333960.0
aF1334600.0
aF1334600.0
aF1336520.0
aF1335600.0
aF1336000.0
aF1335200.0
aF1335280.0
aF1336360.0
aF1337040.0
aF1334120.0
aF1333600.0
aF1333880.0
aF1334360.0
aF1332720.0
aF1333760.0
aF1333200.0
aF1333200.0
aF1330560.0
aF1332160.0
aF1328600.0
aF1329080.0
aF1330000.0
aF1329680.0
aF1332480.0
aF1331360.0
aF1332760.0
aF1333120.0
aF1333760.0
aF1333840.0
aF1336480.0
aF1336200.0
aF1336920.0
aF1336720.0
aF1336000.0
aF1335160.0
aF1335080.0
aF1333280.0
aF1335240.0
aF1335160.0
aF1334320.0
aF1335000.0
aF1331040.0
aF1331360.0
aF1330000.0
aF1331800.0
aF1330240.0
aF1329880.0
aF1329880.0
aF1331360.0
aF1329680.0
aF1327880.0
aF1326800.0
aF1325400.0
aF1326280.0
aF1325920.0
aF1327360.0
aF1327320.0
aF1326840.0
aF1327240.0
aF1327600.0
aF1327000.0
aF1328240.0
aF1329040.0
aF1329000.0
aF1328400.0
aF1329320.0
aF1328400.0
aF1328000.0
aF1330520.0
aF1331520.0
aF1332640.0
aF1332360.0
aF1330640.0
aF1331120.0
aF1331440.0
aF1332400.0
aF1331880.0
aF1331600.0
aF1333200.0
aF1331000.0
aF1330400.0
aF1332240.0
aF1334920.0
aF1334640.0
aF1335120.0
aF1335680.0
aF1335040.0
aF1335000.0
aF1336000.0
aF1337880.0
aF1335760.0
aF1335120.0
aF1334680.0
aF1334240.0
aF1334320.0
aF1333720.0
aF1332600.0
aF1333800.0
aF1334760.0
aF1336520.0
aF1333640.0
aF1334960.0
aF1336600.0
aF1336600.0
aF1337560.0
aF1338320.0
aF1338400.0
aF1338160.0
aF1337400.0
aF1337360.0
aF1336400.0
aF1336000.0
aF1336920.0
aF1335440.0
aF1335560.0
aF1335000.0
aF1335400.0
aF1334840.0
aF1335560.0
aF1334880.0
aF1334840.0
aF1334600.0
aF1333720.0
aF1334200.0
aF1334360.0
aF1334760.0
aF1334480.0
aF1334240.0
aF1335120.0
aF1335200.0
aF1335000.0
aF1335160.0
aF1334560.0
aF1334800.0
aF1335800.0
aF1335720.0
aF1337080.0
aF1337000.0
aF1337360.0
aF1337000.0
aF1337600.0
aF1339000.0
aF1339280.0
aF1338080.0
aF1340200.0
aF1341160.0
aF1340320.0
aF1340400.0
aF1340080.0
aF1338000.0
aF1337800.0
aF1337800.0
aF1339160.0
aF1339200.0
aF1337680.0
aF1338720.0
aF1337240.0
aF1336800.0
aF1336840.0
aF1338040.0
aF1337120.0
aF1338120.0
aF1337440.0
aF1336520.0
aF1334800.0
aF1334880.0
aF1335120.0
aF1334000.0
aF1335600.0
aF1335520.0
aF1337360.0
aF1338080.0
aF1337920.0
aF1338440.0
aF1338320.0
aF1337320.0
aF1338160.0
aF1337040.0
aF1338000.0
aF1339720.0
aF1343000.0
aF1343640.0
aF1345080.0
aF1345280.0
aF1346200.0
aF1345840.0
aF1344080.0
aF1343600.0
aF1342760.0
aF1343000.0
aF1342760.0
aF1340120.0
aF1341120.0
aF1340360.0
aF1340080.0
aF1339560.0
aF1340040.0
aF1342480.0
aF1340000.0
aF1341480.0
aF1340040.0
aF1339800.0
aF1340120.0
aF1339760.0
aF1339640.0
aF1340800.0
aF1341200.0
aF1342640.0
aF1343040.0
aF1342200.0
aF1342480.0
aF1342760.0
aF1341400.0
aF1343600.0
aF1342440.0
aF1340720.0
aF1342040.0
aF1342480.0
aF1342480.0
aF1344520.0
aF1345240.0
aF1344600.0
aF1345080.0
aF1347120.0
aF1348080.0
aF1346520.0
aF1346400.0
aF1347440.0
aF1345400.0
aF1344800.0
aF1346080.0
aF1345800.0
aF1343560.0
aF1342960.0
aF1341200.0
aF1340800.0
aF1339280.0
aF1340000.0
aF1340440.0
aF1340000.0
aF1338400.0
aF1337040.0
aF1337160.0
aF1332720.0
aF1333000.0
aF1333000.0
aF1332000.0
aF1332600.0
aF1332400.0
aF1330880.0
aF1330960.0
aF1333240.0
aF1332480.0
aF1331400.0
aF1333960.0
aF1334760.0
aF1335680.0
aF1335040.0
aF1334640.0
aF1336440.0
aF1334880.0
aF1336400.0
aF1334600.0
aF1334680.0
aF1333800.0
aF1333480.0
aF1333520.0
aF1335040.0
aF1336680.0
aF1337160.0
aF1337920.0
aF1337560.0
aF1337920.0
aF1338560.0
aF1338520.0
aF1338720.0
aF1338480.0
aF1338320.0
aF1338600.0
aF1339920.0
aF1340920.0
aF1343760.0
aF1343000.0
aF1343240.0
aF1341120.0
aF1342000.0
aF1341160.0
aF1341120.0
aF1341480.0
aF1340080.0
aF1339600.0
aF1340600.0
aF1340200.0
aF1340080.0
aF1340760.0
aF1343400.0
aF1343880.0
aF1343800.0
aF1346000.0
aF1343600.0
aF1343640.0
aF1344680.0
aF1346880.0
aF1346000.0
aF1345960.0
aF1347120.0
aF1346360.0
aF1347560.0
aF1347360.0
aF1344600.0
aF1342600.0
aF1344040.0
aF1342600.0
aF1343120.0
aF1342680.0
aF1342080.0
aF1342000.0
aF1341280.0
aF1342560.0
aF1342000.0
aF1341080.0
aF1340480.0
aF1341000.0
aF1344040.0
aF1341000.0
aF1342040.0
aF1342000.0
aF1339960.0
aF1340000.0
aF1338800.0
aF1338640.0
aF1336400.0
aF1339200.0
aF1338480.0
aF1338200.0
aF1337560.0
aF1338360.0
aF1338120.0
aF1338800.0
aF1339720.0
aF1339920.0
aF1340000.0
aF1337680.0
aF1336360.0
aF1336200.0
aF1334440.0
aF1335240.0
aF1333960.0
aF1334880.0
aF1335040.0
aF1335000.0
aF1334960.0
aF1334960.0
aF1335280.0
aF1336040.0
aF1336320.0
aF1338000.0
aF1337360.0
aF1336800.0
aF1336600.0
aF1335840.0
aF1335640.0
aF1336200.0
aF1335800.0
aF1335120.0
aF1334440.0
aF1334880.0
aF1334720.0
aF1332200.0
aF1332240.0
aF1332800.0
aF1332680.0
aF1333520.0
aF1333520.0
aF1333680.0
aF1333880.0
aF1333600.0
aF1333320.0
aF1332840.0
aF1333600.0
aF1334920.0
aF1334360.0
aF1334000.0
aF1333360.0
aF1334120.0
aF1334600.0
aF1335520.0
aF1337320.0
aF1337240.0
aF1337800.0
aF1337360.0
aF1336920.0
aF1336600.0
aF1336560.0
aF1336640.0
aF1337400.0
aF1338560.0
aF1338200.0
aF1339960.0
aF1339400.0
aF1340280.0
aF1342720.0
aF1342520.0
aF1341040.0
aF1340680.0
aF1340160.0
aF1340400.0
aF1339720.0
aF1340440.0
aF1339960.0
aF1339360.0
aF1337840.0
aF1338360.0
aF1337720.0
aF1338880.0
aF1339000.0
aF1339360.0
aF1338720.0
aF1338480.0
aF1337120.0
aF1336960.0
aF1336880.0
aF1336720.0
aF1336000.0
aF1333320.0
aF1332080.0
aF1331400.0
aF1329800.0
aF1330320.0
aF1331320.0
aF1331600.0
aF1332480.0
aF1333760.0
aF1334040.0
aF1333080.0
aF1333760.0
aF1335560.0
aF1334000.0
aF1334440.0
aF1333760.0
aF1334000.0
aF1334600.0
aF1333120.0
aF1332360.0
aF1332760.0
aF1333040.0
aF1333560.0
aF1332240.0
aF1332440.0
aF1332600.0
aF1332160.0
aF1331440.0
asS'metric2_tp_list'
p9
(lp10
(lp11
I63
aI84
aI160
aI177
aI212
aI234
aa(lp12
I89
aI116
aI131
aI162
aI194
aI206
aa(lp13
I133
aI151
aI174
aI194
aI212
aI223
aa(lp14
I3
aI33
aI96
aI134
aI190
aI216
aasS'metric1_list'
p15
(lp16
F-0.24846744537353516
aF-0.3545339107513428
aF-0.1819840520620346
aF-0.050288885831832886
aF-0.007036179304122925
aF-0.18756785988807678
aF-0.36348143219947815
aF-0.3085753321647644
aF-0.28775742650032043
aF-0.143677219748497
aF0.07857432961463928
aF0.15243738889694214
aF0.16754814982414246
aF0.1591661274433136
aF0.22534865140914917
aF0.37468189001083374
aF0.5360678434371948
aF0.6728784441947937
aF0.7098184823989868
aF0.6642512083053589
aF0.5443223714828491
aF0.47827041149139404
aF0.4947514533996582
aF0.4886810779571533
aF0.4950881600379944
aF0.48080503940582275
aF0.562139630317688
aF0.6063226461410522
aF0.6091434955596924
aF0.5490490198135376
aF0.4845094680786133
aF0.3556860685348511
aF0.36925995349884033
aF0.4775412082672119
aF0.5723658800125122
aF0.6212793588638306
aF0.7070543766021729
aF0.7407761812210083
aF0.7711561918258667
aF0.7985049486160278
aF0.9482266902923584
aF1.0143520832061768
aF1.0450681447982788
aF1.0452979803085327
aF1.032345175743103
aF1.0230937004089355
aF1.0125651359558105
aF1.0269783735275269
aF1.0357986688613892
aF1.0788404941558838
aF1.1558399200439453
aF1.198471188545227
aF1.224656105041504
aF1.2633907794952393
aF1.3307832479476929
aF1.4068152904510498
aF1.4862570762634277
aF1.57546865940094
aF1.550765872001648
aF1.5575990676879883
aF1.4996172189712524
aF1.4639288187026978
aF1.4252824783325195
aF1.3265916109085083
aF1.301783561706543
aF1.281336784362793
aF1.2850173711776733
aF1.3218432664871216
aF1.3677940368652344
aF1.4115391969680786
aF1.4077439308166504
aF1.3908605575561523
aF1.3755096197128296
aF1.358275055885315
aF1.405901551246643
aF1.4083304405212402
aF1.4649732112884521
aF1.4951192140579224
aF1.4750733375549316
aF1.5177732706069946
aF1.5767602920532227
aF1.6118768453598022
aF1.6394494771957397
aF1.6752376556396484
aF1.6903022527694702
aF1.6919100284576416
aF1.6742165088653564
aF1.6456345319747925
aF1.632934808731079
aF1.6447827816009521
aF1.6699918508529663
aF1.6831315755844116
aF1.7293225526809692
aF1.7226089239120483
aF1.7243939638137817
aF1.6811785697937012
aF1.634695291519165
aF1.552115559577942
aF1.5030121803283691
aF1.4893513917922974
aF1.5036641359329224
aF1.544181227684021
aF1.6078025102615356
aF1.6077282428741455
aF1.6281410455703735
aF1.6774346828460693
aF1.6778197288513184
aF1.6970763206481934
aF1.7118507623672485
aF1.7016781568527222
aF1.6892154216766357
aF1.7051180601119995
aF1.7107616662979126
aF1.7419401407241821
aF1.7434478998184204
aF1.7550901174545288
aF1.7927731275558472
aF1.815792441368103
aF1.8331738710403442
aF2.017971992492676
aF2.0444602966308594
aF1.9993481636047363
aF1.9720008373260498
aF1.9333391189575195
aF1.9489388465881348
aF1.928637981414795
aF1.9024555683135986
aF1.9349138736724854
aF1.9816300868988037
aF2.001789093017578
aF1.9740850925445557
aF1.964076280593872
aF1.9293382167816162
aF1.9091780185699463
aF1.9042131900787354
aF1.8945045471191406
aF1.9342901706695557
aF1.992957353591919
aF2.0139009952545166
aF1.974768877029419
aF1.925527811050415
aF1.833989143371582
aF1.78562593460083
aF1.7512691020965576
aF1.7411143779754639
aF1.8254988193511963
aF1.8901889324188232
aF1.9201412200927734
aF1.9650988578796387
aF1.9719069004058838
aF1.9439468383789062
aF1.9003667831420898
aF1.9189417362213135
aF1.9098467826843262
aF1.9070911407470703
aF1.9055876731872559
aF1.8886897563934326
aF1.9117810726165771
aF1.9626131057739258
aF2.0460290908813477
aF2.078655481338501
aF2.0972609519958496
aF2.12892484664917
aF2.1602230072021484
aF2.183082103729248
aF2.192547559738159
aF2.1642637252807617
aF2.185486316680908
aF2.1817238330841064
aF2.225742816925049
aF2.2164461612701416
aF2.2072622776031494
aF2.1949028968811035
aF2.167818546295166
aF2.1482579708099365
aF2.139749050140381
aF2.1022279262542725
aF2.0309011936187744
aF2.001744270324707
aF2.008558750152588
aF2.0494229793548584
aF2.1001217365264893
aF2.127717971801758
aF2.163844347000122
aF2.17113995552063
aF2.1529150009155273
aF2.074310302734375
aF2.030561923980713
aF1.9506251811981201
aF1.8477866649627686
aF1.7810475826263428
aF1.814096212387085
aF1.9141757488250732
aF2.02060866355896
aF2.0345754623413086
aF2.036940336227417
aF1.9965553283691406
aF1.9512996673583984
aF1.9583873748779297
aF1.9606754779815674
aF1.9686663150787354
aF1.9747445583343506
aF1.9913296699523926
aF2.0382463932037354
aF2.0808558464050293
aF2.116727113723755
aF2.17167592048645
aF2.1881163120269775
aF2.2726926803588867
aF2.3167452812194824
aF2.3309695720672607
aF2.4085958003997803
aF2.475595474243164
aF2.493023633956909
aF2.5042903423309326
aF2.4793474674224854
aF2.469572067260742
aF2.417213201522827
aF2.34985613822937
aF2.3584580421447754
aF2.345391035079956
aF2.3897881507873535
aF2.4672915935516357
aF2.5104970932006836
aF2.5197689533233643
aF2.5290591716766357
aF2.4848644733428955
aF2.480560064315796
aF2.471290111541748
aF2.4648959636688232
aF2.4571993350982666
aF2.438199996948242
aF2.3796002864837646
aF2.3846867084503174
aF2.403430223464966
aF2.386406898498535
aF2.387031078338623
aF2.390775442123413
aF2.4076526165008545
aF2.4076526165008545
aF2.460944175720215
aF2.5894854068756104
aF2.747299909591675
aF2.8352231979370117
aF2.903360366821289
aF2.885899066925049
aF2.810122013092041
aF2.77648663520813
aF2.7262144088745117
aF2.763740301132202
aF2.8436203002929688
aF2.9454233646392822
aF3.003843069076538
aF3.074110269546509
aF3.038022041320801
aF2.9585821628570557
aF2.8932442665100098
aF2.8364522457122803
aF2.7586288452148438
aF2.802299976348877
aF2.8572285175323486
aF2.886930465698242
aF2.838571548461914
aF2.725471019744873
aF2.636833667755127
aF2.6102094650268555
aF2.7361576557159424
aF2.855447769165039
aF2.924868106842041
aF2.9856698513031006
aF3.0087382793426514
aF3.0758440494537354
aF3.1366395950317383
aF3.138728380203247
aF3.1062638759613037
aF3.051305055618286
aF3.0669662952423096
aF3.206533908843994
aF3.2922632694244385
aF3.3488621711730957
aF3.3015246391296387
aF3.2330145835876465
aF3.1799418926239014
aF3.2095658779144287
aF3.2462756633758545
aF3.3002943992614746
aF3.311861515045166
aF3.28555965423584
aF3.1931915283203125
aF3.125577688217163
aF3.114682197570801
aF3.182267665863037
aF3.2778120040893555
aF3.383023500442505
aF3.4200375080108643
aF3.372614622116089
aF3.384810447692871
aF3.3991458415985107
aF3.4874472618103027
aF3.6106252670288086
aF3.6652371883392334
aF3.7045376300811768
aF3.7371320724487305
aF3.7271220684051514
aF3.7101290225982666
aF3.688455104827881
aF3.666073799133301
aF3.6895251274108887
aF3.7092928886413574
aF3.7143940925598145
aF3.7197439670562744
aF3.651360511779785
aF3.598870277404785
aF3.5422539710998535
aF3.487423896789551
aF3.5401551723480225
aF3.679025173187256
aF3.702336549758911
aF3.674964427947998
aF3.583672046661377
aF3.4979467391967773
aF3.4019806385040283
aF3.3556747436523438
aF3.3512187004089355
aF3.4087748527526855
aF3.4814858436584473
aF3.555408000946045
aF3.547839641571045
aF3.49479079246521
aF3.3825979232788086
aF3.3370919227600098
aF3.3669378757476807
aF3.475512742996216
aF3.5733957290649414
aF3.6142983436584473
aF3.6650843620300293
aF3.6749918460845947
aF3.623460054397583
aF3.6294944286346436
aF3.616433620452881
aF3.5827488899230957
aF3.716529130935669
aF3.8242506980895996
aF3.851747751235962
aF3.7737369537353516
aF3.722851276397705
aF3.67684268951416
aF3.6669154167175293
aF3.687446117401123
aF3.7114734649658203
aF3.734961986541748
aF3.7397003173828125
aF3.7402217388153076
aF3.7008538246154785
aF3.6450395584106445
aF3.6700453758239746
aF3.673917770385742
aF3.7105088233947754
aF3.7401022911071777
aF3.9213428497314453
aF3.925337314605713
aF3.8762168884277344
aF3.8630053997039795
aF3.840459108352661
aF3.821780204772949
aF3.819735527038574
aF3.825166702270508
aF3.8571410179138184
aF3.864414930343628
aF3.8212060928344727
aF3.7637243270874023
aF3.708034038543701
aF3.667799234390259
aF3.6838409900665283
aF3.726430892944336
aF3.7651970386505127
aF3.8169784545898438
aF3.8345556259155273
aF3.900850534439087
aF3.9582324028015137
aF4.018738746643066
aF4.076183795928955
aF4.103538513183594
aF4.103732585906982
aF4.011515140533447
aF3.969555377960205
aF3.962959051132202
aF4.023685455322266
aF4.04586124420166
aF4.044054985046387
aF4.0343523025512695
aF3.9939322471618652
aF3.977545976638794
aF3.9754703044891357
aF4.011762619018555
aF4.0313520431518555
aF4.099973678588867
aF4.226022720336914
aF4.288396835327148
aF4.296015739440918
aF4.284887313842773
aF4.232885360717773
aF4.1729912757873535
aF4.139510631561279
aF4.1294145584106445
aF4.162924766540527
aF4.223806858062744
aF4.109180450439453
aF3.900519371032715
aF3.8269095420837402
aF3.881239891052246
aF3.9561126232147217
aF3.953883647918701
aF3.902536392211914
aF3.8570847511291504
aF3.798290252685547
aF3.7827272415161133
aF3.834212303161621
aF3.8943793773651123
aF3.937950372695923
aF3.991757392883301
aF3.997990131378174
aF3.9760894775390625
aF3.893566131591797
aF3.8869242668151855
aF3.8870458602905273
aF3.936065673828125
aF3.9590234756469727
aF3.928508758544922
aF3.902255058288574
aF3.859180450439453
aF3.8168067932128906
aF3.818718671798706
aF3.839749336242676
aF3.874992847442627
aF3.945158004760742
aF4.004363536834717
aF4.0864739418029785
aF4.1905975341796875
aF4.263177394866943
aF4.249765396118164
aF4.246695041656494
aF4.218580722808838
aF4.124260425567627
aF4.140027046203613
aF4.173996925354004
aF4.168114185333252
aF4.216834545135498
aF4.2733988761901855
aF4.342475891113281
aF4.430422306060791
aF4.489291667938232
aF4.4766645431518555
aF4.393514156341553
aF4.302487850189209
aF4.26191520690918
aF4.257390022277832
aF4.276934623718262
aF4.273426055908203
aF4.256352424621582
aF4.217033386230469
aF4.1930646896362305
aF4.146061420440674
aF4.102665901184082
aF4.034308910369873
aF3.9619240760803223
aF3.9448351860046387
aF4.043949604034424
aF4.093778610229492
aF4.111164093017578
aF4.061789512634277
aF4.009500026702881
aF3.949965238571167
aF3.9357452392578125
aF3.9749364852905273
aF4.0426025390625
aF4.042759418487549
aF4.048243045806885
aF4.026834011077881
aF4.026834011077881
aF3.934885263442993
aF3.939117908477783
aF4.0719451904296875
aF4.240213394165039
aF4.428004741668701
aF4.571715354919434
aF4.593155860900879
aF4.6061553955078125
aF4.584362030029297
aF4.606592178344727
aF4.581217288970947
aF4.666840553283691
aF4.7362213134765625
aF4.727362632751465
aF4.675563812255859
aF4.594264984130859
aF4.523336410522461
aF4.5487380027771
aF4.649501800537109
aF4.7171220779418945
aF4.744163513183594
aF4.728565216064453
aF4.716839790344238
aF4.666743755340576
aF4.665562152862549
aF4.65809440612793
aF4.712018013000488
aF4.806574821472168
aF4.907078742980957
aF4.980446815490723
aF5.042403221130371
aF5.043347358703613
aF5.051839828491211
aF5.023249626159668
aF5.0332159996032715
aF5.078561782836914
aF5.126949310302734
aF5.178414344787598
aF5.221275329589844
aF5.243788719177246
aF5.1986541748046875
aF5.17112922668457
aF5.123721122741699
aF5.1403117179870605
aF5.170784950256348
aF5.230462551116943
aF5.251888275146484
aF5.234241008758545
aF5.185482978820801
aF5.162463665008545
aF5.156264305114746
aF5.192363262176514
aF5.2648162841796875
aF5.383780479431152
aF5.429100036621094
aF5.418683052062988
aF5.379820823669434
aF5.3748250007629395
aF5.36418342590332
aF5.356980323791504
aF5.366158485412598
aF5.37332820892334
aF5.395992279052734
aF5.430875778198242
aF5.459496974945068
aF5.508940696716309
aF5.507926940917969
aF5.50780725479126
aF5.509042739868164
aF5.496777534484863
aF5.469104290008545
aF5.472165584564209
aF5.454094886779785
aF5.417479038238525
aF5.380366325378418
aF5.33205509185791
aF5.275959491729736
aF5.322707176208496
aF5.394079208374023
aF5.434547424316406
aF5.432589054107666
aF5.443188667297363
aF5.433157920837402
aF5.419848442077637
aF5.3927435874938965
aF5.409670829772949
aF5.54666805267334
aF5.603172302246094
aF5.632561206817627
aF5.615082740783691
aF5.583028793334961
aF5.5540618896484375
aF5.510890007019043
aF5.478654384613037
aF5.453417778015137
aF5.456845283508301
aF5.466266632080078
aF5.43834924697876
aF5.451573371887207
aF5.475714683532715
aF5.458434104919434
aF5.45860481262207
aF5.426339149475098
aF5.4107770919799805
aF5.370392799377441
aF5.345503330230713
aF5.371118068695068
aF5.3710408210754395
aF5.366486549377441
aF5.376695156097412
aF5.409599304199219
aF5.423652648925781
aF5.39216423034668
aF5.376722812652588
aF5.338139533996582
aF5.307397842407227
aF5.330893039703369
aF5.352108955383301
aF5.393978595733643
aF5.526528835296631
aF5.619007110595703
aF5.626354694366455
aF5.6482696533203125
aF5.6400146484375
aF5.6505022048950195
aF5.668474197387695
aF5.700278282165527
aF5.70944356918335
aF5.750555038452148
aF5.783021926879883
aF5.8112711906433105
aF5.799014091491699
aF5.783290863037109
aF5.7704267501831055
aF5.775116920471191
aF5.789994239807129
aF5.756221294403076
aF5.732436180114746
aF5.668559551239014
aF5.637853622436523
aF5.577070236206055
aF5.548828125
aF5.537181854248047
aF5.47745418548584
aF5.505825042724609
aF5.506412982940674
aF5.497066974639893
aF5.516674518585205
aF5.549596786499023
aF5.520023345947266
aF5.522790908813477
aF5.514553070068359
aF5.457136631011963
aF5.290592193603516
aF5.130951881408691
aF5.063142776489258
aF5.091660499572754
aF5.22666072845459
aF5.315998077392578
aF5.284785747528076
aF5.199015140533447
aF5.132321357727051
aF5.116507053375244
aF5.131555080413818
aF5.180200576782227
aF5.240426540374756
aF5.28582763671875
aF5.293179512023926
aF5.27622652053833
aF5.1989336013793945
aF5.161275863647461
aF5.123662948608398
aF5.068669319152832
aF5.082461357116699
aF5.077288627624512
aF5.174615859985352
aF5.233832836151123
aF5.25551700592041
aF5.290590286254883
aF5.270658493041992
aF5.260861873626709
aF5.24918270111084
aF5.259467124938965
aF5.282863140106201
aF5.3190155029296875
aF5.313310623168945
aF5.336275100708008
aF5.364231109619141
aF5.399992942810059
aF5.455266952514648
aF5.5209455490112305
aF5.5817461013793945
aF5.63110876083374
aF5.643434047698975
aF5.600428104400635
aF5.586691856384277
aF5.510972499847412
aF5.478095054626465
aF5.510500907897949
aF5.509441375732422
aF5.477144241333008
aF5.454625129699707
aF5.412880897521973
aF5.408329963684082
aF5.368963241577148
aF5.359918594360352
aF5.360508441925049
aF5.367110729217529
aF5.406154632568359
aF5.422970294952393
aF5.420650959014893
aF5.443141937255859
aF5.505125045776367
aF5.581466197967529
aF5.574587821960449
aF5.54573392868042
aF5.549620628356934
aF5.560791969299316
aF5.57469367980957
aF5.598483085632324
aF5.629632949829102
aF5.671640396118164
aF5.683165550231934
aF5.705389499664307
aF5.729684829711914
aF5.7245330810546875
aF5.740887641906738
aF5.699214935302734
aF5.699230194091797
aF5.716805934906006
aF5.705418586730957
aF5.678988456726074
aF5.640000820159912
aF5.5440826416015625
aF5.491121292114258
aF5.45346736907959
aF5.446824550628662
aF5.438833236694336
aF5.410676956176758
aF5.410676956176758
aF5.577392578125
aF5.79489278793335
aF5.882387161254883
aF5.856093883514404
aF5.896352767944336
aF5.917659282684326
aF5.966315746307373
aF6.0597758293151855
aF6.196836948394775
aF6.324151039123535
aF6.352060794830322
aF6.327626705169678
aF6.2540740966796875
aF6.237621307373047
aF6.2534613609313965
aF6.262945652008057
aF6.233004570007324
aF6.161692142486572
aF6.112608432769775
aF6.088001251220703
aF6.086767673492432
aF6.136765480041504
aF6.227258205413818
aF6.3343186378479
aF6.410969257354736
aF6.466418743133545
aF6.4664435386657715
aF6.466446876525879
aF6.461933135986328
aF6.48598575592041
aF6.5825934410095215
aF6.638374328613281
aF6.61433744430542
aF6.591671943664551
aF6.540354251861572
aF6.4911041259765625
aF6.492220878601074
aF6.492518424987793
aF6.49876070022583
aF6.515470504760742
aF6.570809364318848
aF6.596321105957031
aF6.552291393280029
aF6.492481708526611
aF6.448910236358643
aF6.381513595581055
aF6.376102447509766
aF6.426029682159424
aF6.511377334594727
aF6.600949764251709
aF6.664149284362793
aF6.662868976593018
aF6.643597602844238
aF6.643718719482422
aF6.636322498321533
aF6.705090045928955
aF6.792557239532471
aF6.889168739318848
aF6.9591569900512695
aF6.9932098388671875
aF6.978271484375
aF6.948034286499023
aF6.907818794250488
aF6.896786689758301
aF6.892605781555176
aF6.929203987121582
aF6.950151443481445
aF6.9952263832092285
aF6.984382629394531
aF6.877405166625977
aF6.7771759033203125
aF6.7219696044921875
aF6.714186668395996
aF6.761146068572998
aF6.804595947265625
aF6.833907127380371
aF6.874015808105469
aF6.840641975402832
aF6.702816963195801
aF6.567270278930664
aF6.485651016235352
aF6.5211567878723145
aF6.606612205505371
aF6.704765796661377
aF6.764490604400635
aF6.7624993324279785
aF6.741113662719727
aF6.7028703689575195
aF6.706296443939209
aF6.734561920166016
aF6.7999653816223145
aF6.8747878074646
aF6.930462837219238
aF6.9264631271362305
aF6.906518936157227
aF6.864948749542236
aF6.867378234863281
aF6.918131351470947
aF6.951572895050049
aF6.98852014541626
aF6.952467918395996
aF6.938940048217773
aF6.919499397277832
aF6.904103755950928
aF6.858206748962402
aF6.840298652648926
aF6.832352638244629
aF6.840994834899902
aF6.807046413421631
aF6.8117876052856445
aF6.873580455780029
aF6.936720371246338
aF6.987969398498535
aF7.002441883087158
aF7.006124973297119
aF7.012976169586182
aF6.995769023895264
aF7.013593673706055
aF7.0470404624938965
aF7.169262886047363
aF7.194973945617676
aF7.15529727935791
aF7.105745315551758
aF7.069639205932617
aF7.0470380783081055
aF7.076324462890625
aF7.110898494720459
aF7.145071029663086
aF7.1651153564453125
aF7.212313175201416
aF7.2462615966796875
aF7.247258186340332
aF7.260803699493408
aF7.259549140930176
aF7.2261810302734375
aF7.133490562438965
aF7.085369110107422
aF7.066311359405518
aF7.048736572265625
aF7.040200233459473
aF7.05193567276001
aF7.065505504608154
aF7.0606489181518555
aF7.03394889831543
aF7.006937026977539
aF6.9565558433532715
aF6.906079292297363
aF6.8398213386535645
aF6.818170547485352
aF6.810775279998779
aF6.796633720397949
aF6.829100608825684
aF6.893179893493652
aF6.95449161529541
aF6.954514026641846
aF6.959601402282715
aF6.928334712982178
aF6.926181793212891
aF6.918210029602051
aF6.930355548858643
aF6.949124336242676
aF7.008175373077393
aF7.046741008758545
aF7.097607612609863
aF7.11070442199707
aF7.143008232116699
aF7.1438469886779785
aF7.148896217346191
aF7.156834602355957
aF7.148822784423828
aF7.20478630065918
aF7.251297473907471
aF7.31016731262207
aF7.363702774047852
aF7.352499961853027
aF7.280893325805664
aF7.162309646606445
aF7.084818363189697
aF7.084047794342041
aF7.09433126449585
aF7.137340068817139
aF7.153633117675781
aF7.113911151885986
aF7.030482769012451
aF6.944262981414795
aF6.933375358581543
aF6.986279010772705
aF7.065670013427734
aF7.119937896728516
aF7.096445083618164
aF7.077291488647461
aF7.0466508865356445
aF6.963991165161133
aF6.952915191650391
aF6.943249702453613
aF6.955975532531738
aF6.997998237609863
aF7.0643720626831055
aF7.109002590179443
aF7.171092987060547
aF7.175520896911621
aF7.172060489654541
aF7.146262168884277
aF7.130921363830566
aF7.132127285003662
aF7.1298089027404785
aF7.191855430603027
aF7.26839542388916
aF7.3700127601623535
aF7.466897964477539
aF7.5013017654418945
aF7.510348320007324
aF7.436655521392822
aF7.360449314117432
aF7.309906482696533
aF7.301344394683838
aF7.319535255432129
aF7.32472038269043
aF7.336150169372559
aF7.276026248931885
aF7.18266487121582
aF7.1112871170043945
aF7.03143310546875
aF7.034562587738037
aF7.096485614776611
aF7.156007289886475
aF7.202075481414795
aF7.225564002990723
aF7.223074913024902
aF7.199671268463135
aF7.169055461883545
aF7.184390068054199
aF7.208192348480225
aF7.245952606201172
aF7.300973892211914
aF7.353382110595703
aF7.366990566253662
aF7.361050605773926
aF7.368390083312988
aF7.368390083312988
aF7.454777717590332
aF7.6319804191589355
aF7.731348037719727
aF7.716662883758545
aF7.655358791351318
aF7.583282947540283
aF7.5774030685424805
aF7.619941234588623
aF7.655743598937988
aF7.6880950927734375
aF7.692114353179932
aF7.665028095245361
aF7.639082431793213
aF7.513816833496094
aF7.374309062957764
aF7.2836833000183105
aF7.313859939575195
aF7.2888312339782715
aF7.243152141571045
aF7.108666896820068
aF6.8969244956970215
aF6.679725646972656
aF6.518740177154541
aF6.449031829833984
aF6.5009355545043945
aF6.63447904586792
aF6.745738983154297
aF6.780858516693115
aF6.587883949279785
aF6.429719924926758
aF6.284429550170898
aF6.1098408699035645
aF6.109434127807617
aF6.305736541748047
aF6.497260093688965
aF6.618618488311768
aF6.614858627319336
aF6.564076900482178
aF6.531851768493652
aF6.54409122467041
aF6.662020206451416
aF6.829713821411133
aF6.988737106323242
aF7.064552307128906
aF7.028842926025391
aF6.954463005065918
aF6.906160831451416
aF6.921172618865967
aF6.9869794845581055
aF7.021145820617676
aF7.029428958892822
aF7.0261640548706055
aF6.995883941650391
aF6.962574005126953
aF6.916610240936279
aF6.924072742462158
aF6.99862813949585
aF7.144049644470215
aF7.240323543548584
aF7.331239223480225
aF7.346026420593262
aF7.382020950317383
aF7.37817907333374
aF7.336367607116699
aF7.317005157470703
aF7.3455119132995605
aF7.411098003387451
aF7.5011467933654785
aF7.617558479309082
aF7.728538990020752
aF7.694891929626465
aF7.662074089050293
aF7.580044746398926
aF7.499837398529053
aF7.468214988708496
aF7.48311710357666
aF7.497763156890869
aF7.5055251121521
aF7.535449981689453
aF7.525243759155273
aF7.520898342132568
aF7.523502349853516
aF7.508340358734131
aF7.564629554748535
aF7.621288299560547
aF7.726887226104736
aF7.788097381591797
aF7.826887130737305
aF7.827497482299805
aF7.803433895111084
aF7.828757286071777
aF7.817971706390381
aF7.832793712615967
aF7.885433197021484
aF7.945278644561768
aF7.9693779945373535
aF7.951772212982178
aF7.858729362487793
aF7.734806060791016
aF7.708748817443848
aF7.680400848388672
aF7.686954975128174
aF7.7009477615356445
aF7.659910202026367
aF7.602071762084961
aF7.4975104331970215
aF7.449025630950928
aF7.440009593963623
aF7.414482593536377
aF7.441926956176758
aF7.504578113555908
aF7.540019989013672
aF7.541515350341797
aF7.54834508895874
aF7.530050754547119
aF7.507054328918457
aF7.491392135620117
aF7.460602283477783
aF7.460277557373047
aF7.479202747344971
aF7.444733619689941
aF7.392379283905029
aF7.321040630340576
aF7.283799171447754
aF7.2551422119140625
aF7.272372245788574
aF7.327479362487793
aF7.351154327392578
aF7.368565559387207
aF7.354652404785156
aF7.290592670440674
aF7.17893648147583
aF7.05293607711792
aF6.991611003875732
aF7.0052618980407715
aF7.124074459075928
aF7.254850387573242
aF7.292325019836426
aF7.288401126861572
aF7.22278356552124
aF7.148004055023193
aF7.13886022567749
aF7.180326461791992
aF7.297910690307617
aF7.391435623168945
aF7.441240310668945
aF7.423811435699463
aF7.3767266273498535
aF7.342057228088379
aF7.31502103805542
aF7.301392555236816
aF7.335957050323486
aF7.354104995727539
aF7.278714656829834
aF7.2103118896484375
aF7.125890731811523
aF7.030672073364258
aF6.992518901824951
aF7.063576698303223
aF7.206568717956543
aF7.295498371124268
aF7.324999809265137
aF7.320629596710205
aF7.306574821472168
aF7.287816047668457
aF7.237882614135742
aF7.211367130279541
aF7.194177627563477
aF7.284680366516113
aF7.3983612060546875
aF7.4571380615234375
aF7.5099639892578125
aF7.569081783294678
aF7.633193492889404
aF7.656708240509033
aF7.722023963928223
aF7.748048305511475
aF7.791248798370361
aF7.818077087402344
aF7.803223133087158
aF7.768093109130859
aF7.740932941436768
aF7.711108684539795
aF7.766067981719971
aF7.81116247177124
aF7.90755558013916
aF8.044496536254883
aF8.19897747039795
aF8.299272537231445
aF8.342994689941406
aF8.310888290405273
aF8.213958740234375
aF8.077277183532715
aF8.057258605957031
aF8.090560913085938
aF8.171677589416504
aF8.2448091506958
aF8.226009368896484
aF8.15963077545166
aF8.039422035217285
aF7.948984146118164
aF7.933589458465576
aF7.9684367179870605
aF8.021747589111328
aF8.081414222717285
aF8.113245010375977
aF8.047883033752441
aF7.966672420501709
aF7.924151420593262
aF7.912534236907959
aF7.874528408050537
aF7.811823844909668
aF7.739859580993652
aF7.537623405456543
aF7.381908893585205
aF7.365379810333252
aF7.607095241546631
aF7.835360050201416
aF7.8539276123046875
aF7.832335472106934
aF7.7131524085998535
aF7.646086692810059
aF7.597635746002197
aF7.670101642608643
aF7.78515625
aF7.896780014038086
aF7.933281898498535
aF7.937919616699219
aF7.91042947769165
aF7.845342636108398
aF7.77882194519043
aF7.74059534072876
aF7.7132568359375
aF7.710543632507324
aF7.700326442718506
aF7.702976703643799
aF7.725836277008057
aF7.737794399261475
aF7.730011463165283
asS'size'
p17
I960
s.