(dp0
S'tp_threshold'
p1
F0.1
sS'normalize'
p2
I0
sS'metric_len'
p3
I60
sS'n_channel'
p4
I1
sS'MIN_PER_DAY'
p5
I240
sS'MAX_N_STRUCT'
p6
I1000000
sS'n_point'
p7
I6
sS'data_path'
p8
S'cnn2.log'
p9
sS'target_type'
p10
S'METRIC1'
p11
sS'tp_interval'
p12
I5
s.